target datalayout = "e-m:e-p270:32:32-p271:32:32-p272:64:64-i64:64-i128:128-f80:128-n8:16:32:64-S128"
target triple = "x86_64-pc-linux-gnu"

%"class.cv::Size_" = type { i32, i32 }
%"class.testing::internal::ParamGenerator" = type { %"class.testing::internal::linked_ptr" }
%"class.testing::internal::linked_ptr" = type { ptr, %"class.testing::internal::linked_ptr_internal" }
%"class.testing::internal::linked_ptr_internal" = type { ptr }
%"class.testing::internal::ValueArray5" = type { %"class.cv::Size_", %"class.cv::Size_", %"class.cv::Size_", %"class.cv::Size_", %"class.cv::Size_" }
%"class.testing::internal::CartesianProductHolder2.225" = type { %"class.testing::internal::ValueArray5", %"class.testing::internal::ValueArray6" }
%"class.testing::internal::ValueArray6" = type { i32, i32, i32, i32, i32, i32 }

@_ZN4perfL6szQVGAE = internal global %"class.cv::Size_" zeroinitializer, align 4
@_ZN4perfL5szVGAE = internal global %"class.cv::Size_" zeroinitializer, align 4
@_ZN4perfL6sz720pE = internal global %"class.cv::Size_" zeroinitializer, align 4
@_ZN4perfL7sz1080pE = internal global %"class.cv::Size_" zeroinitializer, align 4
@_ZN4perfL5szODDE = internal global %"class.cv::Size_" zeroinitializer, align 4

; Function Attrs: mustprogress nounwind uwtable
define linkonce_odr hidden void @_ZN7testing8internal11ValueArray6IiiiiiiEC2ERKS2_(ptr noundef nonnull align 4 dereferenceable(24) %0, ptr noundef nonnull align 4 dereferenceable(24) %1) unnamed_addr #9 comdat align 2 {
  %3 = alloca ptr, align 8
  %4 = alloca ptr, align 8
  store ptr %0, ptr %3, align 8, !tbaa !577
  store ptr %1, ptr %4, align 8, !tbaa !577
  %5 = load ptr, ptr %3, align 8
  %6 = getelementptr inbounds nuw %"class.testing::internal::ValueArray6", ptr %5, i32 0, i32 0
  %7 = load ptr, ptr %4, align 8, !tbaa !577
  %8 = getelementptr inbounds nuw %"class.testing::internal::ValueArray6", ptr %7, i32 0, i32 0
  %9 = load i32, ptr %8, align 4, !tbaa !581
  store i32 %9, ptr %6, align 4, !tbaa !581
  %10 = getelementptr inbounds nuw %"class.testing::internal::ValueArray6", ptr %5, i32 0, i32 1
  %11 = load ptr, ptr %4, align 8, !tbaa !577
  %12 = getelementptr inbounds nuw %"class.testing::internal::ValueArray6", ptr %11, i32 0, i32 1
  %13 = load i32, ptr %12, align 4, !tbaa !583
  store i32 %13, ptr %10, align 4, !tbaa !583
  %14 = getelementptr inbounds nuw %"class.testing::internal::ValueArray6", ptr %5, i32 0, i32 2
  %15 = load ptr, ptr %4, align 8, !tbaa !577
  %16 = getelementptr inbounds nuw %"class.testing::internal::ValueArray6", ptr %15, i32 0, i32 2
  %17 = load i32, ptr %16, align 4, !tbaa !584
  store i32 %17, ptr %14, align 4, !tbaa !584
  %18 = getelementptr inbounds nuw %"class.testing::internal::ValueArray6", ptr %5, i32 0, i32 3
  %19 = load ptr, ptr %4, align 8, !tbaa !577
  %20 = getelementptr inbounds nuw %"class.testing::internal::ValueArray6", ptr %19, i32 0, i32 3
  %21 = load i32, ptr %20, align 4, !tbaa !585
  store i32 %21, ptr %18, align 4, !tbaa !585
  %22 = getelementptr inbounds nuw %"class.testing::internal::ValueArray6", ptr %5, i32 0, i32 4
  %23 = load ptr, ptr %4, align 8, !tbaa !577
  %24 = getelementptr inbounds nuw %"class.testing::internal::ValueArray6", ptr %23, i32 0, i32 4
  %25 = load i32, ptr %24, align 4, !tbaa !586
  store i32 %25, ptr %22, align 4, !tbaa !586
  %26 = getelementptr inbounds nuw %"class.testing::internal::ValueArray6", ptr %5, i32 0, i32 5
  %27 = load ptr, ptr %4, align 8, !tbaa !577
  %28 = getelementptr inbounds nuw %"class.testing::internal::ValueArray6", ptr %27, i32 0, i32 5
  %29 = load i32, ptr %28, align 4, !tbaa !587
  store i32 %29, ptr %26, align 4, !tbaa !587
  ret void
}

; Function Attrs: mustprogress nounwind uwtable
define linkonce_odr hidden void @_ZN7testing8internal11ValueArray5IN2cv5Size_IiEES4_S4_S4_S4_EC2ERKS5_(ptr noundef nonnull align 4 dereferenceable(40) %0, ptr noundef nonnull align 4 dereferenceable(40) %1) unnamed_addr #9 comdat align 2 {
  %3 = alloca ptr, align 8
  %4 = alloca ptr, align 8
  store ptr %0, ptr %3, align 8, !tbaa !373
  store ptr %1, ptr %4, align 8, !tbaa !373
  %5 = load ptr, ptr %3, align 8
  %6 = getelementptr inbounds nuw %"class.testing::internal::ValueArray5", ptr %5, i32 0, i32 0
  %7 = load ptr, ptr %4, align 8, !tbaa !373
  %8 = getelementptr inbounds nuw %"class.testing::internal::ValueArray5", ptr %7, i32 0, i32 0
  call void @llvm.memcpy.p0.p0.i64(ptr align 4 %6, ptr align 4 %8, i64 8, i1 false), !tbaa.struct !73
  %9 = getelementptr inbounds nuw %"class.testing::internal::ValueArray5", ptr %5, i32 0, i32 1
  %10 = load ptr, ptr %4, align 8, !tbaa !373
  %11 = getelementptr inbounds nuw %"class.testing::internal::ValueArray5", ptr %10, i32 0, i32 1
  call void @llvm.memcpy.p0.p0.i64(ptr align 4 %9, ptr align 4 %11, i64 8, i1 false), !tbaa.struct !73
  %12 = getelementptr inbounds nuw %"class.testing::internal::ValueArray5", ptr %5, i32 0, i32 2
  %13 = load ptr, ptr %4, align 8, !tbaa !373
  %14 = getelementptr inbounds nuw %"class.testing::internal::ValueArray5", ptr %13, i32 0, i32 2
  call void @llvm.memcpy.p0.p0.i64(ptr align 4 %12, ptr align 4 %14, i64 8, i1 false), !tbaa.struct !73
  %15 = getelementptr inbounds nuw %"class.testing::internal::ValueArray5", ptr %5, i32 0, i32 3
  %16 = load ptr, ptr %4, align 8, !tbaa !373
  %17 = getelementptr inbounds nuw %"class.testing::internal::ValueArray5", ptr %16, i32 0, i32 3
  call void @llvm.memcpy.p0.p0.i64(ptr align 4 %15, ptr align 4 %17, i64 8, i1 false), !tbaa.struct !73
  %18 = getelementptr inbounds nuw %"class.testing::internal::ValueArray5", ptr %5, i32 0, i32 4
  %19 = load ptr, ptr %4, align 8, !tbaa !373
  %20 = getelementptr inbounds nuw %"class.testing::internal::ValueArray5", ptr %19, i32 0, i32 4
  call void @llvm.memcpy.p0.p0.i64(ptr align 4 %18, ptr align 4 %20, i64 8, i1 false), !tbaa.struct !73
  ret void
}

; Function Attrs: mustprogress uwtable
define linkonce_odr hidden void @_ZN7testing8internal23CartesianProductHolder2INS0_11ValueArray5IN2cv5Size_IiEES5_S5_S5_S5_EENS0_11ValueArray6IiiiiiiEEEC2ERKS6_RKS8_(ptr noundef nonnull align 4 dereferenceable(64) %0, ptr noundef nonnull align 4 dereferenceable(40) %1, ptr noundef nonnull align 4 dereferenceable(24) %2) unnamed_addr #6 comdat align 2 {
  %4 = alloca ptr, align 8
  %5 = alloca ptr, align 8
  %6 = alloca ptr, align 8
  store ptr %0, ptr %4, align 8, !tbaa !579
  store ptr %1, ptr %5, align 8, !tbaa !373
  store ptr %2, ptr %6, align 8, !tbaa !577
  %7 = load ptr, ptr %4, align 8
  %8 = getelementptr inbounds nuw %"class.testing::internal::CartesianProductHolder2.225", ptr %7, i32 0, i32 0
  %9 = load ptr, ptr %5, align 8, !tbaa !373
  call void @_ZN7testing8internal11ValueArray5IN2cv5Size_IiEES4_S4_S4_S4_EC2ERKS5_(ptr noundef nonnull align 4 dereferenceable(40) %8, ptr noundef nonnull align 4 dereferenceable(40) %9)
  %10 = getelementptr inbounds nuw %"class.testing::internal::CartesianProductHolder2.225", ptr %7, i32 0, i32 1
  %11 = load ptr, ptr %6, align 8, !tbaa !577
  call void @_ZN7testing8internal11ValueArray6IiiiiiiEC2ERKS2_(ptr noundef nonnull align 4 dereferenceable(24) %10, ptr noundef nonnull align 4 dereferenceable(24) %11)
  ret void
}

; Function Attrs: mustprogress nounwind uwtable
define linkonce_odr hidden void @_ZN7testing8internal11ValueArray6IiiiiiiEC2Eiiiiii(ptr noundef nonnull align 4 dereferenceable(24) %0, i32 noundef %1, i32 noundef %2, i32 noundef %3, i32 noundef %4, i32 noundef %5, i32 noundef %6) unnamed_addr #9 comdat align 2 {
  %8 = alloca ptr, align 8
  %9 = alloca i32, align 4
  %10 = alloca i32, align 4
  %11 = alloca i32, align 4
  %12 = alloca i32, align 4
  %13 = alloca i32, align 4
  %14 = alloca i32, align 4
  store ptr %0, ptr %8, align 8, !tbaa !577
  store i32 %1, ptr %9, align 4, !tbaa !9
  store i32 %2, ptr %10, align 4, !tbaa !9
  store i32 %3, ptr %11, align 4, !tbaa !9
  store i32 %4, ptr %12, align 4, !tbaa !9
  store i32 %5, ptr %13, align 4, !tbaa !9
  store i32 %6, ptr %14, align 4, !tbaa !9
  %15 = load ptr, ptr %8, align 8
  %16 = getelementptr inbounds nuw %"class.testing::internal::ValueArray6", ptr %15, i32 0, i32 0
  %17 = load i32, ptr %9, align 4, !tbaa !9
  store i32 %17, ptr %16, align 4, !tbaa !581
  %18 = getelementptr inbounds nuw %"class.testing::internal::ValueArray6", ptr %15, i32 0, i32 1
  %19 = load i32, ptr %10, align 4, !tbaa !9
  store i32 %19, ptr %18, align 4, !tbaa !583
  %20 = getelementptr inbounds nuw %"class.testing::internal::ValueArray6", ptr %15, i32 0, i32 2
  %21 = load i32, ptr %11, align 4, !tbaa !9
  store i32 %21, ptr %20, align 4, !tbaa !584
  %22 = getelementptr inbounds nuw %"class.testing::internal::ValueArray6", ptr %15, i32 0, i32 3
  %23 = load i32, ptr %12, align 4, !tbaa !9
  store i32 %23, ptr %22, align 4, !tbaa !585
  %24 = getelementptr inbounds nuw %"class.testing::internal::ValueArray6", ptr %15, i32 0, i32 4
  %25 = load i32, ptr %13, align 4, !tbaa !9
  store i32 %25, ptr %24, align 4, !tbaa !586
  %26 = getelementptr inbounds nuw %"class.testing::internal::ValueArray6", ptr %15, i32 0, i32 5
  %27 = load i32, ptr %14, align 4, !tbaa !9
  store i32 %27, ptr %26, align 4, !tbaa !587
  ret void
}

; Function Attrs: mustprogress nounwind uwtable
define linkonce_odr hidden void @_ZN7testing8internal11ValueArray5IN2cv5Size_IiEES4_S4_S4_S4_EC2ES4_S4_S4_S4_S4_(ptr noundef nonnull align 4 dereferenceable(40) %0, i64 %1, i64 %2, i64 %3, i64 %4, i64 %5) unnamed_addr #9 comdat align 2 {
  %7 = alloca %"class.cv::Size_", align 4
  %8 = alloca %"class.cv::Size_", align 4
  %9 = alloca %"class.cv::Size_", align 4
  %10 = alloca %"class.cv::Size_", align 4
  %11 = alloca %"class.cv::Size_", align 4
  %12 = alloca ptr, align 8
  store i64 %1, ptr %7, align 4
  store i64 %2, ptr %8, align 4
  store i64 %3, ptr %9, align 4
  store i64 %4, ptr %10, align 4
  store i64 %5, ptr %11, align 4
  store ptr %0, ptr %12, align 8, !tbaa !373
  %13 = load ptr, ptr %12, align 8
  %14 = getelementptr inbounds nuw %"class.testing::internal::ValueArray5", ptr %13, i32 0, i32 0
  call void @llvm.memcpy.p0.p0.i64(ptr align 4 %14, ptr align 4 %7, i64 8, i1 false), !tbaa.struct !73
  %15 = getelementptr inbounds nuw %"class.testing::internal::ValueArray5", ptr %13, i32 0, i32 1
  call void @llvm.memcpy.p0.p0.i64(ptr align 4 %15, ptr align 4 %8, i64 8, i1 false), !tbaa.struct !73
  %16 = getelementptr inbounds nuw %"class.testing::internal::ValueArray5", ptr %13, i32 0, i32 2
  call void @llvm.memcpy.p0.p0.i64(ptr align 4 %16, ptr align 4 %9, i64 8, i1 false), !tbaa.struct !73
  %17 = getelementptr inbounds nuw %"class.testing::internal::ValueArray5", ptr %13, i32 0, i32 3
  call void @llvm.memcpy.p0.p0.i64(ptr align 4 %17, ptr align 4 %10, i64 8, i1 false), !tbaa.struct !73
  %18 = getelementptr inbounds nuw %"class.testing::internal::ValueArray5", ptr %13, i32 0, i32 4
  call void @llvm.memcpy.p0.p0.i64(ptr align 4 %18, ptr align 4 %11, i64 8, i1 false), !tbaa.struct !73
  ret void
}

; Function Attrs: mustprogress uwtable
define linkonce_odr hidden void @_ZN7testing7CombineINS_8internal11ValueArray5IN2cv5Size_IiEES5_S5_S5_S5_EENS1_11ValueArray6IiiiiiiEEEENS1_23CartesianProductHolder2IT_T0_EERKSA_RKSB_(ptr dead_on_unwind noalias writable sret(%"class.testing::internal::CartesianProductHolder2.225") align 4 %0, ptr noundef nonnull align 4 dereferenceable(40) %1, ptr noundef nonnull align 4 dereferenceable(24) %2) #6 comdat {
  %4 = alloca ptr, align 8
  %5 = alloca ptr, align 8
  %6 = alloca ptr, align 8
  store ptr %0, ptr %4, align 8
  store ptr %1, ptr %5, align 8, !tbaa !373
  store ptr %2, ptr %6, align 8, !tbaa !577
  %7 = load ptr, ptr %5, align 8, !tbaa !373
  %8 = load ptr, ptr %6, align 8, !tbaa !577
  call void @_ZN7testing8internal23CartesianProductHolder2INS0_11ValueArray5IN2cv5Size_IiEES5_S5_S5_S5_EENS0_11ValueArray6IiiiiiiEEEC2ERKS6_RKS8_(ptr noundef nonnull align 4 dereferenceable(64) %0, ptr noundef nonnull align 4 dereferenceable(40) %7, ptr noundef nonnull align 4 dereferenceable(24) %8)
  ret void
}

; Function Attrs: mustprogress uwtable
define linkonce_odr hidden void @_ZN7testing6ValuesIiiiiiiEENS_8internal11ValueArray6IT_T0_T1_T2_T3_T4_EES3_S4_S5_S6_S7_S8_(ptr dead_on_unwind noalias writable sret(%"class.testing::internal::ValueArray6") align 4 %0, i32 noundef %1, i32 noundef %2, i32 noundef %3, i32 noundef %4, i32 noundef %5, i32 noundef %6) #6 comdat {
  %8 = alloca ptr, align 8
  %9 = alloca i32, align 4
  %10 = alloca i32, align 4
  %11 = alloca i32, align 4
  %12 = alloca i32, align 4
  %13 = alloca i32, align 4
  %14 = alloca i32, align 4
  store ptr %0, ptr %8, align 8
  store i32 %1, ptr %9, align 4, !tbaa !9
  store i32 %2, ptr %10, align 4, !tbaa !9
  store i32 %3, ptr %11, align 4, !tbaa !9
  store i32 %4, ptr %12, align 4, !tbaa !9
  store i32 %5, ptr %13, align 4, !tbaa !9
  store i32 %6, ptr %14, align 4, !tbaa !9
  %15 = load i32, ptr %9, align 4, !tbaa !9
  %16 = load i32, ptr %10, align 4, !tbaa !9
  %17 = load i32, ptr %11, align 4, !tbaa !9
  %18 = load i32, ptr %12, align 4, !tbaa !9
  %19 = load i32, ptr %13, align 4, !tbaa !9
  %20 = load i32, ptr %14, align 4, !tbaa !9
  call void @_ZN7testing8internal11ValueArray6IiiiiiiEC2Eiiiiii(ptr noundef nonnull align 4 dereferenceable(24) %0, i32 noundef %15, i32 noundef %16, i32 noundef %17, i32 noundef %18, i32 noundef %19, i32 noundef %20)
  ret void
}

; Function Attrs: mustprogress uwtable
define linkonce_odr hidden void @_ZN7testing6ValuesIN2cv5Size_IiEES3_S3_S3_S3_EENS_8internal11ValueArray5IT_T0_T1_T2_T3_EES6_S7_S8_S9_SA_(ptr dead_on_unwind noalias writable sret(%"class.testing::internal::ValueArray5") align 4 %0, i64 %1, i64 %2, i64 %3, i64 %4, i64 %5) #6 comdat {
  %7 = alloca ptr, align 8
  %8 = alloca %"class.cv::Size_", align 4
  %9 = alloca %"class.cv::Size_", align 4
  %10 = alloca %"class.cv::Size_", align 4
  %11 = alloca %"class.cv::Size_", align 4
  %12 = alloca %"class.cv::Size_", align 4
  %13 = alloca %"class.cv::Size_", align 4
  %14 = alloca %"class.cv::Size_", align 4
  %15 = alloca %"class.cv::Size_", align 4
  %16 = alloca %"class.cv::Size_", align 4
  %17 = alloca %"class.cv::Size_", align 4
  store ptr %0, ptr %7, align 8
  store i64 %1, ptr %8, align 4
  store i64 %2, ptr %9, align 4
  store i64 %3, ptr %10, align 4
  store i64 %4, ptr %11, align 4
  store i64 %5, ptr %12, align 4
  call void @llvm.memcpy.p0.p0.i64(ptr align 4 %13, ptr align 4 %8, i64 8, i1 false), !tbaa.struct !73
  call void @llvm.memcpy.p0.p0.i64(ptr align 4 %14, ptr align 4 %9, i64 8, i1 false), !tbaa.struct !73
  call void @llvm.memcpy.p0.p0.i64(ptr align 4 %15, ptr align 4 %10, i64 8, i1 false), !tbaa.struct !73
  call void @llvm.memcpy.p0.p0.i64(ptr align 4 %16, ptr align 4 %11, i64 8, i1 false), !tbaa.struct !73
  call void @llvm.memcpy.p0.p0.i64(ptr align 4 %17, ptr align 4 %12, i64 8, i1 false), !tbaa.struct !73
  %18 = load i64, ptr %13, align 4
  %19 = load i64, ptr %14, align 4
  %20 = load i64, ptr %15, align 4
  %21 = load i64, ptr %16, align 4
  %22 = load i64, ptr %17, align 4
  call void @_ZN7testing8internal11ValueArray5IN2cv5Size_IiEES4_S4_S4_S4_EC2ES4_S4_S4_S4_S4_(ptr noundef nonnull align 4 dereferenceable(40) %0, i64 %18, i64 %19, i64 %20, i64 %21, i64 %22)
  ret void
}

; Function Attrs: mustprogress uwtable
define internal void @_ZN11opencv_testL43gtest_Accumulate_ProductMask_EvalGenerator_Ev(ptr dead_on_unwind noalias writable sret(%"class.testing::internal::ParamGenerator") align 8 %0) #6 {
  %2 = alloca ptr, align 8
  %3 = alloca %"class.testing::internal::CartesianProductHolder2.225", align 4
  %4 = alloca %"class.testing::internal::ValueArray5", align 4
  %5 = alloca %"class.cv::Size_", align 4
  %6 = alloca %"class.cv::Size_", align 4
  %7 = alloca %"class.cv::Size_", align 4
  %8 = alloca %"class.cv::Size_", align 4
  %9 = alloca %"class.cv::Size_", align 4
  %10 = alloca %"class.testing::internal::ValueArray6", align 4
  store ptr %0, ptr %2, align 8
  call void @llvm.lifetime.start.p0(i64 64, ptr %3) #3
  call void @llvm.lifetime.start.p0(i64 40, ptr %4) #3
  call void @llvm.memcpy.p0.p0.i64(ptr align 4 %5, ptr align 4 @_ZN4perfL7sz1080pE, i64 8, i1 false), !tbaa.struct !73
  call void @llvm.memcpy.p0.p0.i64(ptr align 4 %6, ptr align 4 @_ZN4perfL6sz720pE, i64 8, i1 false), !tbaa.struct !73
  call void @llvm.memcpy.p0.p0.i64(ptr align 4 %7, ptr align 4 @_ZN4perfL5szVGAE, i64 8, i1 false), !tbaa.struct !73
  call void @llvm.memcpy.p0.p0.i64(ptr align 4 %8, ptr align 4 @_ZN4perfL6szQVGAE, i64 8, i1 false), !tbaa.struct !73
  call void @llvm.memcpy.p0.p0.i64(ptr align 4 %9, ptr align 4 @_ZN4perfL5szODDE, i64 8, i1 false), !tbaa.struct !73
  %11 = load i64, ptr %5, align 4
  %12 = load i64, ptr %6, align 4
  %13 = load i64, ptr %7, align 4
  %14 = load i64, ptr %8, align 4
  %15 = load i64, ptr %9, align 4
  call void @_ZN7testing6ValuesIN2cv5Size_IiEES3_S3_S3_S3_EENS_8internal11ValueArray5IT_T0_T1_T2_T3_EES6_S7_S8_S9_SA_(ptr dead_on_unwind writable sret(%"class.testing::internal::ValueArray5") align 4 %4, i64 %11, i64 %12, i64 %13, i64 %14, i64 %15)
  call void @llvm.lifetime.start.p0(i64 24, ptr %10) #3
  call void @_ZN7testing6ValuesIiiiiiiEENS_8internal11ValueArray6IT_T0_T1_T2_T3_T4_EES3_S4_S5_S6_S7_S8_(ptr dead_on_unwind writable sret(%"class.testing::internal::ValueArray6") align 4 %10, i32 noundef 0, i32 noundef 2, i32 noundef 5, i32 noundef 16, i32 noundef 18, i32 noundef 21)
  call void @_ZN7testing7CombineINS_8internal11ValueArray5IN2cv5Size_IiEES5_S5_S5_S5_EENS1_11ValueArray6IiiiiiiEEEENS1_23CartesianProductHolder2IT_T0_EERKSA_RKSB_(ptr dead_on_unwind writable sret(%"class.testing::internal::CartesianProductHolder2.225") align 4 %3, ptr noundef nonnull align 4 dereferenceable(40) %4, ptr noundef nonnull align 4 dereferenceable(24) %10)
  call void @_ZNK7testing8internal23CartesianProductHolder2INS0_11ValueArray5IN2cv5Size_IiEES5_S5_S5_S5_EENS0_11ValueArray6IiiiiiiEEEcvNS0_14ParamGeneratorISt5tupleIJT_T0_EEEEIS5_N4perf7MatTypeEEEv(ptr dead_on_unwind writable sret(%"class.testing::internal::ParamGenerator") align 8 %0, ptr noundef nonnull align 4 dereferenceable(64) %3)
  call void @llvm.lifetime.end.p0(i64 24, ptr %10) #3
  call void @llvm.lifetime.end.p0(i64 40, ptr %4) #3
  call void @llvm.lifetime.end.p0(i64 64, ptr %3) #3
  ret void
}